; Function Attrs: mustprogress nofree norecurse nosync nounwind memory(readwrite, inaccessiblemem: none) uwtable
define void @_ZN10OpenSubdiv6v3_6_03Vtr8internal13TriRefinement35populateEdgeVerticesFromParentEdgesEv(ptr nocapture noundef nonnull readonly align 8 dereferenceable(528) %0) local_unnamed_addr #2 align 2 {
  %2 = getelementptr inbounds nuw i8, ptr %0, i64 8
  %3 = load ptr, ptr %2, align 8
  %4 = getelementptr inbounds nuw i8, ptr %3, i64 4
  %5 = load i32, ptr %4, align 4
  %6 = icmp sgt i32 %5, 0
  br i1 %6, label %.lr.ph, label %._crit_edge

.lr.ph:                                           ; preds = %1
  %7 = getelementptr inbounds nuw i8, ptr %0, i64 192
  %8 = getelementptr inbounds nuw i8, ptr %0, i64 16
  %9 = getelementptr inbounds nuw i8, ptr %0, i64 216
  %10 = getelementptr inbounds nuw i8, ptr %0, i64 240
  br label %11

11:                                               ; preds = %.lr.ph, %56
  %indvars.iv = phi i64 [ 0, %.lr.ph ], [ %indvars.iv.next, %56 ]
  %12 = phi ptr [ %3, %.lr.ph ], [ %57, %56 ]
  %13 = getelementptr inbounds nuw i8, ptr %12, i64 120
  %14 = shl nuw nsw i64 %indvars.iv, 1
  %15 = load ptr, ptr %13, align 8
  %16 = getelementptr inbounds i32, ptr %15, i64 %14
  %17 = load ptr, ptr %7, align 8
  %18 = getelementptr inbounds i32, ptr %17, i64 %14
  %19 = load i32, ptr %18, align 4
  %.not = icmp eq i32 %19, -1
  br i1 %.not, label %36, label %20

20:                                               ; preds = %11
  %21 = load ptr, ptr %8, align 8
  %22 = getelementptr inbounds nuw i8, ptr %21, i64 120
  %23 = shl nsw i32 %19, 1
  %24 = sext i32 %23 to i64
  %25 = load ptr, ptr %22, align 8
  %26 = getelementptr inbounds i32, ptr %25, i64 %24
  %27 = load ptr, ptr %9, align 8
  %28 = getelementptr inbounds i32, ptr %27, i64 %indvars.iv
  %29 = load i32, ptr %28, align 4
  store i32 %29, ptr %26, align 4
  %30 = load i32, ptr %16, align 4
  %31 = sext i32 %30 to i64
  %32 = load ptr, ptr %10, align 8
  %33 = getelementptr inbounds i32, ptr %32, i64 %31
  %34 = load i32, ptr %33, align 4
  %35 = getelementptr inbounds i8, ptr %26, i64 4
  store i32 %34, ptr %35, align 4
  br label %36

36:                                               ; preds = %20, %11
  %37 = getelementptr inbounds i8, ptr %18, i64 4
  %38 = load i32, ptr %37, align 4
  %.not37 = icmp eq i32 %38, -1
  br i1 %.not37, label %56, label %39

39:                                               ; preds = %36
  %40 = load ptr, ptr %8, align 8
  %41 = getelementptr inbounds nuw i8, ptr %40, i64 120
  %42 = shl nsw i32 %38, 1
  %43 = sext i32 %42 to i64
  %44 = load ptr, ptr %41, align 8
  %45 = getelementptr inbounds i32, ptr %44, i64 %43
  %46 = load ptr, ptr %9, align 8
  %47 = getelementptr inbounds i32, ptr %46, i64 %indvars.iv
  %48 = load i32, ptr %47, align 4
  store i32 %48, ptr %45, align 4
  %49 = getelementptr inbounds i8, ptr %16, i64 4
  %50 = load i32, ptr %49, align 4
  %51 = sext i32 %50 to i64
  %52 = load ptr, ptr %10, align 8
  %53 = getelementptr inbounds i32, ptr %52, i64 %51
  %54 = load i32, ptr %53, align 4
  %55 = getelementptr inbounds i8, ptr %45, i64 4
  store i32 %54, ptr %55, align 4
  br label %56

56:                                               ; preds = %36, %39
  %indvars.iv.next = add nuw nsw i64 %indvars.iv, 1
  %57 = load ptr, ptr %2, align 8
  %58 = getelementptr inbounds nuw i8, ptr %57, i64 4
  %59 = load i32, ptr %58, align 4
  %60 = sext i32 %59 to i64
  %61 = icmp slt i64 %indvars.iv.next, %60
  br i1 %61, label %11, label %._crit_edge, !llvm.loop !10

._crit_edge:                                      ; preds = %56, %1
  ret void
}